; Function Attrs: mustprogress uwtable
define hidden noundef zeroext i1 @_ZN2cv11bioinspired11RetinaColor34applyKrauskopfLMS2Acr1cr2TransformERSt8valarrayIfE(ptr noundef nonnull readonly align 8 captures(none) dereferenceable(349) %0, ptr noundef nonnull readonly align 8 captures(none) dereferenceable(16) %1) local_unnamed_addr #3 align 2 {
  %3 = load i64, ptr %1, align 8, !tbaa !13
  %4 = getelementptr inbounds nuw i8, ptr %0, i64 272
  %5 = load i64, ptr %4, align 8, !tbaa !13
  %.not = icmp eq i64 %3, %5
  br i1 %.not, label %27, label %6

6:                                                ; preds = %2
  %7 = tail call noundef nonnull align 8 dereferenceable(8) ptr @_ZSt16__ostream_insertIcSt11char_traitsIcEERSt13basic_ostreamIT_T0_ES6_PKS3_l(ptr noundef nonnull align 8 dereferenceable(8) @_ZSt4cerr, ptr noundef nonnull @.str.3, i64 noundef 115)
  %8 = load ptr, ptr @_ZSt4cerr, align 8, !tbaa !3
  %9 = getelementptr i8, ptr %8, i64 -24
  %10 = load i64, ptr %9, align 8
  %11 = getelementptr inbounds i8, ptr @_ZSt4cerr, i64 %10
  %12 = getelementptr inbounds nuw i8, ptr %11, i64 240
  %13 = load ptr, ptr %12, align 8, !tbaa !63
  %.not.i.i.i = icmp eq ptr %13, null
  br i1 %.not.i.i.i, label %14, label %_ZSt13__check_facetISt5ctypeIcEERKT_PS3_.exit.i.i

14:                                               ; preds = %6
  tail call void @_ZSt16__throw_bad_castv() #20
  unreachable

_ZSt13__check_facetISt5ctypeIcEERKT_PS3_.exit.i.i: ; preds = %6
  %15 = getelementptr inbounds nuw i8, ptr %13, i64 56
  %16 = load i8, ptr %15, align 8, !tbaa !78
  %.not.i1.i.i = icmp eq i8 %16, 0
  br i1 %.not.i1.i.i, label %20, label %17

17:                                               ; preds = %_ZSt13__check_facetISt5ctypeIcEERKT_PS3_.exit.i.i
  %18 = getelementptr inbounds nuw i8, ptr %13, i64 67
  %19 = load i8, ptr %18, align 1, !tbaa !83
  br label %_ZSt4endlIcSt11char_traitsIcEERSt13basic_ostreamIT_T0_ES6_.exit

20:                                               ; preds = %_ZSt13__check_facetISt5ctypeIcEERKT_PS3_.exit.i.i
  tail call void @_ZNKSt5ctypeIcE13_M_widen_initEv(ptr noundef nonnull align 8 dereferenceable(570) %13)
  %21 = load ptr, ptr %13, align 8, !tbaa !3
  %22 = getelementptr inbounds nuw i8, ptr %21, i64 48
  %23 = load ptr, ptr %22, align 8
  %24 = tail call noundef signext i8 %23(ptr noundef nonnull align 8 dereferenceable(570) %13, i8 noundef signext 10)
  br label %_ZSt4endlIcSt11char_traitsIcEERSt13basic_ostreamIT_T0_ES6_.exit

_ZSt4endlIcSt11char_traitsIcEERSt13basic_ostreamIT_T0_ES6_.exit: ; preds = %17, %20
  %.0.i.i.i = phi i8 [ %19, %17 ], [ %24, %20 ]
  %25 = tail call noundef nonnull align 8 dereferenceable(8) ptr @_ZNSo3putEc(ptr noundef nonnull align 8 dereferenceable(8) @_ZSt4cerr, i8 noundef signext %.0.i.i.i)
  %26 = tail call noundef nonnull align 8 dereferenceable(8) ptr @_ZNSo5flushEv(ptr noundef nonnull align 8 dereferenceable(8) %25)
  br label %_ZN2cv11bioinspired11RetinaColor31_applyImageColorSpaceConversionERKSt8valarrayIfERS3_PKf.exit

27:                                               ; preds = %2
  %28 = udiv i64 %3, 3
  %29 = trunc i64 %28 to i32
  %.not.i = icmp eq i32 %29, 0
  br i1 %.not.i, label %_ZN2cv11bioinspired11RetinaColor31_applyImageColorSpaceConversionERKSt8valarrayIfERS3_PKf.exit, label %.lr.ph.i

.lr.ph.i:                                         ; preds = %27
  %30 = getelementptr inbounds nuw i8, ptr %1, i64 8
  %31 = load ptr, ptr %30, align 8, !tbaa !16
  %32 = getelementptr inbounds nuw i8, ptr %0, i64 280
  %33 = load ptr, ptr %32, align 8, !tbaa !16
  %34 = shl i64 %3, 1
  %35 = udiv i64 %34, 3
  %36 = and i64 %28, 4294967295
  %37 = and i64 %35, 4294967295
  br label %38

38:                                               ; preds = %38, %.lr.ph.i
  %.045.i = phi ptr [ %33, %.lr.ph.i ], [ %55, %38 ]
  %.04044.i = phi ptr [ %31, %.lr.ph.i ], [ %54, %38 ]
  %.04143.i = phi i32 [ 0, %.lr.ph.i ], [ %53, %38 ]
  %39 = load float, ptr %.045.i, align 4, !tbaa !31
  %40 = getelementptr inbounds nuw float, ptr %.045.i, i64 %36
  %41 = load float, ptr %40, align 4, !tbaa !31
  %42 = fadd float %39, %41
  %43 = getelementptr inbounds nuw float, ptr %.045.i, i64 %37
  %44 = load float, ptr %43, align 4, !tbaa !31
  %45 = tail call float @llvm.fmuladd.f32(float %44, float 0.000000e+00, float %42)
  %46 = fsub float %39, %41
  %47 = tail call float @llvm.fmuladd.f32(float %44, float 0.000000e+00, float %46)
  %48 = fmul float %41, -5.000000e-01
  %49 = tail call float @llvm.fmuladd.f32(float %39, float -5.000000e-01, float %48)
  %50 = fadd float %44, %49
  store float %45, ptr %.04044.i, align 4, !tbaa !31
  %51 = getelementptr inbounds nuw float, ptr %.04044.i, i64 %36
  store float %47, ptr %51, align 4, !tbaa !31
  %52 = getelementptr inbounds nuw float, ptr %.04044.i, i64 %37
  store float %50, ptr %52, align 4, !tbaa !31
  %53 = add nuw i32 %.04143.i, 1
  %54 = getelementptr inbounds nuw i8, ptr %.04044.i, i64 4
  %55 = getelementptr inbounds nuw i8, ptr %.045.i, i64 4
  %exitcond.not.i = icmp eq i32 %53, %29
  br i1 %exitcond.not.i, label %_ZN2cv11bioinspired11RetinaColor31_applyImageColorSpaceConversionERKSt8valarrayIfERS3_PKf.exit, label %38, !llvm.loop !208

_ZN2cv11bioinspired11RetinaColor31_applyImageColorSpaceConversionERKSt8valarrayIfERS3_PKf.exit: ; preds = %38, %27, %_ZSt4endlIcSt11char_traitsIcEERSt13basic_ostreamIT_T0_ES6_.exit
  ret i1 %.not
}